; Function Attrs: mustprogress uwtable
define hidden noundef nonnull ptr @_ZN16cached_var_substclEP10quantifierj(ptr noundef nonnull align 8 dereferenceable(656) %this, ptr noundef %qa, i32 noundef %num_bindings) local_unnamed_addr #4 align 2 {
entry:
  %m_new_keys = getelementptr inbounds i8, ptr %this, i64 640
  %add = add i32 %num_bindings, 1
  %0 = load ptr, ptr %m_new_keys, align 8
  %cmp.i.i = icmp eq ptr %0, null
  br i1 %cmp.i.i, label %_ZNK6vectorIPN16cached_var_subst3keyELb0EjE4sizeEv.exit.i, label %_ZNK6vectorIPN16cached_var_subst3keyELb0EjE4sizeEv.exit.thread.i

_ZNK6vectorIPN16cached_var_subst3keyELb0EjE4sizeEv.exit.i: ; preds = %entry
  %cmp.not.i = icmp ne i32 %add, 0
  tail call void @llvm.assume(i1 %cmp.not.i)
  br label %while.cond.i.i.preheader

_ZNK6vectorIPN16cached_var_subst3keyELb0EjE4sizeEv.exit.thread.i: ; preds = %entry
  %arrayidx.i.i = getelementptr inbounds i8, ptr %0, i64 -4
  %1 = load i32, ptr %arrayidx.i.i, align 4
  %cmp4.i = icmp ult i32 %1, %add
  br i1 %cmp4.i, label %while.cond.i.i.preheader, label %_ZN6vectorIPN16cached_var_subst3keyELb0EjE7reserveEjRKS2_.exit

while.cond.i.i.preheader:                         ; preds = %_ZNK6vectorIPN16cached_var_subst3keyELb0EjE4sizeEv.exit.i, %_ZNK6vectorIPN16cached_var_subst3keyELb0EjE4sizeEv.exit.thread.i
  %.ph = phi ptr [ %0, %_ZNK6vectorIPN16cached_var_subst3keyELb0EjE4sizeEv.exit.thread.i ], [ null, %_ZNK6vectorIPN16cached_var_subst3keyELb0EjE4sizeEv.exit.i ]
  %retval.0.i16.i.i.ph = phi i32 [ %1, %_ZNK6vectorIPN16cached_var_subst3keyELb0EjE4sizeEv.exit.thread.i ], [ 0, %_ZNK6vectorIPN16cached_var_subst3keyELb0EjE4sizeEv.exit.i ]
  br label %while.cond.i.i

while.cond.i.i:                                   ; preds = %while.cond.i.i.preheader, %while.body.i.i
  %2 = phi ptr [ %.pr.pre.i.i, %while.body.i.i ], [ %.ph, %while.cond.i.i.preheader ]
  %cmp.i10.i.i = icmp eq ptr %2, null
  br i1 %cmp.i10.i.i, label %_ZNK6vectorIPN16cached_var_subst3keyELb0EjE8capacityEv.exit.i.i, label %if.end.i11.i.i

if.end.i11.i.i:                                   ; preds = %while.cond.i.i
  %arrayidx.i12.i.i = getelementptr inbounds i8, ptr %2, i64 -8
  %3 = load i32, ptr %arrayidx.i12.i.i, align 4
  br label %_ZNK6vectorIPN16cached_var_subst3keyELb0EjE8capacityEv.exit.i.i

_ZNK6vectorIPN16cached_var_subst3keyELb0EjE8capacityEv.exit.i.i: ; preds = %if.end.i11.i.i, %while.cond.i.i
  %retval.0.i13.i.i = phi i32 [ %3, %if.end.i11.i.i ], [ 0, %while.cond.i.i ]
  %cmp3.i.i = icmp ult i32 %retval.0.i13.i.i, %add
  br i1 %cmp3.i.i, label %while.body.i.i, label %while.end.i.i

while.body.i.i:                                   ; preds = %_ZNK6vectorIPN16cached_var_subst3keyELb0EjE8capacityEv.exit.i.i
  tail call void @_ZN6vectorIPN16cached_var_subst3keyELb0EjE13expand_vectorEv(ptr noundef nonnull align 8 dereferenceable(8) %m_new_keys)
  %.pr.pre.i.i = load ptr, ptr %m_new_keys, align 8
  br label %while.cond.i.i, !llvm.loop !8

while.end.i.i:                                    ; preds = %_ZNK6vectorIPN16cached_var_subst3keyELb0EjE8capacityEv.exit.i.i
  %arrayidx.i2.i = getelementptr inbounds i8, ptr %2, i64 -4
  store i32 %add, ptr %arrayidx.i2.i, align 4
  %4 = load ptr, ptr %m_new_keys, align 8
  %cmp8.not17.i.i = icmp eq i32 %retval.0.i16.i.i.ph, %add
  br i1 %cmp8.not17.i.i, label %_ZN6vectorIPN16cached_var_subst3keyELb0EjE7reserveEjRKS2_.exit, label %for.body.preheader.i.i

for.body.preheader.i.i:                           ; preds = %while.end.i.i
  %idx.ext6.i.i = zext i32 %add to i64
  %idx.ext.i.i = zext i32 %retval.0.i16.i.i.ph to i64
  %add.ptr.i.i = getelementptr ptr, ptr %4, i64 %idx.ext.i.i
  %5 = shl nuw nsw i64 %idx.ext6.i.i, 3
  %6 = add nsw i64 %5, -8
  %7 = shl nuw nsw i64 %idx.ext.i.i, 3
  %8 = sub nsw i64 %6, %7
  %9 = add nsw i64 %8, 8
  tail call void @llvm.memset.p0.i64(ptr align 8 %add.ptr.i.i, i8 0, i64 %9, i1 false)
  %.pre = load ptr, ptr %m_new_keys, align 8
  br label %_ZN6vectorIPN16cached_var_subst3keyELb0EjE7reserveEjRKS2_.exit

_ZN6vectorIPN16cached_var_subst3keyELb0EjE7reserveEjRKS2_.exit: ; preds = %for.body.preheader.i.i, %_ZNK6vectorIPN16cached_var_subst3keyELb0EjE4sizeEv.exit.thread.i, %while.end.i.i
  %10 = phi ptr [ %.pre, %for.body.preheader.i.i ], [ %0, %_ZNK6vectorIPN16cached_var_subst3keyELb0EjE4sizeEv.exit.thread.i ], [ %4, %while.end.i.i ]
  %idxprom.i = zext i32 %num_bindings to i64
  %arrayidx.i = getelementptr inbounds ptr, ptr %10, i64 %idxprom.i
  %11 = load ptr, ptr %arrayidx.i, align 8
  %m_key = getelementptr inbounds i8, ptr %this, i64 648
  store ptr %11, ptr %m_key, align 8
  %cmp = icmp eq ptr %11, null
  br i1 %cmp, label %if.then, label %if.end

if.then:                                          ; preds = %_ZN6vectorIPN16cached_var_subst3keyELb0EjE7reserveEjRKS2_.exit
  %m_region = getelementptr inbounds i8, ptr %this, i64 600
  %mul = shl nuw nsw i64 %idxprom.i, 3
  %add4 = add nuw nsw i64 %mul, 16
  %call5 = tail call noundef ptr @_ZN6region8allocateEm(ptr noundef nonnull align 8 dereferenceable(40) %m_region, i64 noundef %add4)
  store ptr %call5, ptr %m_key, align 8
  br label %if.end

if.end:                                           ; preds = %if.then, %_ZN6vectorIPN16cached_var_subst3keyELb0EjE7reserveEjRKS2_.exit
  %12 = phi ptr [ %call5, %if.then ], [ %11, %_ZN6vectorIPN16cached_var_subst3keyELb0EjE7reserveEjRKS2_.exit ]
  store ptr %qa, ptr %12, align 8
  %13 = load ptr, ptr %m_key, align 8
  %m_num_bindings = getelementptr inbounds i8, ptr %13, i64 8
  store i32 %num_bindings, ptr %m_num_bindings, align 8
  %14 = load ptr, ptr %m_key, align 8
  %m_bindings = getelementptr inbounds i8, ptr %14, i64 16
  ret ptr %m_bindings
}